; Function Attrs: nounwind uwtable
define internal range(i32 -1, 1) i32 @H5O__dtype_shared_encode(ptr noundef %0, i1 noundef zeroext %1, i64 %2, ptr noundef %3, ptr noundef %4) #0 {
  %6 = alloca ptr, align 8
  %7 = load i32, ptr %4, align 8
  %8 = add i32 %7, -3
  %switch = icmp ult i32 %8, -2
  %brmerge = or i1 %switch, %1
  br i1 %brmerge, label %16, label %9

9:                                                ; preds = %5
  %10 = tail call i32 @H5O__shared_encode(ptr noundef %0, ptr noundef %3, ptr noundef nonnull %4) #15
  %11 = icmp slt i32 %10, 0
  br i1 %11, label %12, label %26

12:                                               ; preds = %9
  %13 = load i64, ptr @H5E_OHDR_g, align 8
  %14 = load i64, ptr @H5E_CANTENCODE_g, align 8
  %15 = tail call i32 (ptr, ptr, i32, i64, i64, ptr, ...) @H5E_printf_stack(ptr noundef nonnull @.str.1, ptr noundef nonnull @__func__.H5O__dtype_shared_encode, i32 noundef 119, i64 noundef %13, i64 noundef %14, ptr noundef nonnull @.str.58) #15
  br label %26

16:                                               ; preds = %5
  call void @llvm.lifetime.start.p0(i64 8, ptr nonnull %6)
  store ptr %3, ptr %6, align 8
  %17 = call fastcc i32 @H5O__dtype_encode_helper(ptr noundef nonnull %6, ptr noundef nonnull readonly %4)
  %18 = icmp slt i32 %17, 0
  br i1 %18, label %19, label %H5O__dtype_encode.exit

H5O__dtype_encode.exit:                           ; preds = %16
  call void @llvm.lifetime.end.p0(i64 8, ptr nonnull %6)
  br label %26

19:                                               ; preds = %16
  %20 = load i64, ptr @H5E_DATATYPE_g, align 8
  %21 = load i64, ptr @H5E_CANTENCODE_g, align 8
  %22 = call i32 (ptr, ptr, i32, i64, i64, ptr, ...) @H5E_printf_stack(ptr noundef nonnull @.str.4, ptr noundef nonnull @__func__.H5O__dtype_encode, i32 noundef 1473, i64 noundef %20, i64 noundef %21, ptr noundef nonnull @.str.60) #15
  call void @llvm.lifetime.end.p0(i64 8, ptr nonnull %6)
  %23 = load i64, ptr @H5E_OHDR_g, align 8
  %24 = load i64, ptr @H5E_CANTENCODE_g, align 8
  %25 = call i32 (ptr, ptr, i32, i64, i64, ptr, ...) @H5E_printf_stack(ptr noundef nonnull @.str.1, ptr noundef nonnull @__func__.H5O__dtype_shared_encode, i32 noundef 124, i64 noundef %23, i64 noundef %24, ptr noundef nonnull @.str.59) #15
  br label %26

26:                                               ; preds = %H5O__dtype_encode.exit, %9, %19, %12
  %.0 = phi i32 [ -1, %19 ], [ 0, %H5O__dtype_encode.exit ], [ -1, %12 ], [ 0, %9 ]
  ret i32 %.0
}